#include <math.h>
#include <stdio.h>
#include <stdlib.h>
#include <string.h>


int main()
{
	int i,j,n,k;
	scanf("%d",&n);
	if(n!=4||n!=3||n!=2||n!=1)
	{
		for(i=5;i<=n;i++)
		{
		k=(int)sqrt(i);
		for(j=2;j<=k;j++)
		{
			if(i%j==0||(i-2)%j==0)
				break;
		}
		if(j>k)
			printf("%d %d\n",i-2,i);
		}
	}
	if(n==4||n==3||n==2||n==1)
		printf("empty\n");
	return 0;

}
