; ModuleID = '60/714.c'
source_filename = "60/714.c"
target datalayout = "e-m:e-p270:32:32-p271:32:32-p272:64:64-i64:64-f80:128-n8:16:32:64-S128"
target triple = "x86_64-pc-linux-gnu"

@.str = private unnamed_addr constant [3 x i8] c"%d\00", align 1
@.str.1 = private unnamed_addr constant [7 x i8] c"%d %d\0A\00", align 1
@.str.2 = private unnamed_addr constant [7 x i8] c"empty\0A\00", align 1

; Function Attrs: noinline nounwind uwtable
define dso_local i32 @main() #0 {
  %1 = alloca i32, align 4
  %2 = alloca i32, align 4
  %3 = alloca i32, align 4
  %4 = alloca i32, align 4
  %5 = alloca i32, align 4
  store i32 0, i32* %1, align 4
  %6 = call i32 (i8*, ...) @__isoc99_scanf(i8* getelementptr inbounds ([3 x i8], [3 x i8]* @.str, i64 0, i64 0), i32* %4)
  %7 = load i32, i32* %4, align 4
  %8 = icmp ne i32 %7, 4
  br i1 %8, label %18, label %9

9:                                                ; preds = %0
  %10 = load i32, i32* %4, align 4
  %11 = icmp ne i32 %10, 3
  br i1 %11, label %18, label %12

12:                                               ; preds = %9
  %13 = load i32, i32* %4, align 4
  %14 = icmp ne i32 %13, 2
  br i1 %14, label %18, label %15

15:                                               ; preds = %12
  %16 = load i32, i32* %4, align 4
  %17 = icmp ne i32 %16, 1
  br i1 %17, label %18, label %62

18:                                               ; preds = %15, %12, %9, %0
  store i32 5, i32* %2, align 4
  br label %19

19:                                               ; preds = %58, %18
  %20 = load i32, i32* %2, align 4
  %21 = load i32, i32* %4, align 4
  %22 = icmp sle i32 %20, %21
  br i1 %22, label %23, label %61

23:                                               ; preds = %19
  %24 = load i32, i32* %2, align 4
  %25 = sitofp i32 %24 to double
  %26 = call double @sqrt(double %25) #3
  %27 = fptosi double %26 to i32
  store i32 %27, i32* %5, align 4
  store i32 2, i32* %3, align 4
  br label %28

28:                                               ; preds = %45, %23
  %29 = load i32, i32* %3, align 4
  %30 = load i32, i32* %5, align 4
  %31 = icmp sle i32 %29, %30
  br i1 %31, label %32, label %48

32:                                               ; preds = %28
  %33 = load i32, i32* %2, align 4
  %34 = load i32, i32* %3, align 4
  %35 = srem i32 %33, %34
  %36 = icmp eq i32 %35, 0
  br i1 %36, label %43, label %37

37:                                               ; preds = %32
  %38 = load i32, i32* %2, align 4
  %39 = sub nsw i32 %38, 2
  %40 = load i32, i32* %3, align 4
  %41 = srem i32 %39, %40
  %42 = icmp eq i32 %41, 0
  br i1 %42, label %43, label %44

43:                                               ; preds = %37, %32
  br label %48

44:                                               ; preds = %37
  br label %45

45:                                               ; preds = %44
  %46 = load i32, i32* %3, align 4
  %47 = add nsw i32 %46, 1
  store i32 %47, i32* %3, align 4
  br label %28

48:                                               ; preds = %43, %28
  %49 = load i32, i32* %3, align 4
  %50 = load i32, i32* %5, align 4
  %51 = icmp sgt i32 %49, %50
  br i1 %51, label %52, label %57

52:                                               ; preds = %48
  %53 = load i32, i32* %2, align 4
  %54 = sub nsw i32 %53, 2
  %55 = load i32, i32* %2, align 4
  %56 = call i32 (i8*, ...) @printf(i8* getelementptr inbounds ([7 x i8], [7 x i8]* @.str.1, i64 0, i64 0), i32 %54, i32 %55)
  br label %57

57:                                               ; preds = %52, %48
  br label %58

58:                                               ; preds = %57
  %59 = load i32, i32* %2, align 4
  %60 = add nsw i32 %59, 1
  store i32 %60, i32* %2, align 4
  br label %19

61:                                               ; preds = %19
  br label %62

62:                                               ; preds = %61, %15
  %63 = load i32, i32* %4, align 4
  %64 = icmp eq i32 %63, 4
  br i1 %64, label %74, label %65

65:                                               ; preds = %62
  %66 = load i32, i32* %4, align 4
  %67 = icmp eq i32 %66, 3
  br i1 %67, label %74, label %68

68:                                               ; preds = %65
  %69 = load i32, i32* %4, align 4
  %70 = icmp eq i32 %69, 2
  br i1 %70, label %74, label %71

71:                                               ; preds = %68
  %72 = load i32, i32* %4, align 4
  %73 = icmp eq i32 %72, 1
  br i1 %73, label %74, label %76

74:                                               ; preds = %71, %68, %65, %62
  %75 = call i32 (i8*, ...) @printf(i8* getelementptr inbounds ([7 x i8], [7 x i8]* @.str.2, i64 0, i64 0))
  br label %76

76:                                               ; preds = %74, %71
  ret i32 0
}

declare dso_local i32 @__isoc99_scanf(i8*, ...) #1

; Function Attrs: nounwind
declare dso_local double @sqrt(double) #2

declare dso_local i32 @printf(i8*, ...) #1


!llvm.module.flags = !{!0}
!llvm.ident = !{!1}

!0 = !{i32 1, !"wchar_size", i32 4}
!1 = !{!"clang version 10.0.0-4ubuntu1 "}
