; ModuleID = 'source-C-CXX/59/714.c'
source_filename = "source-C-CXX/59/714.c"
target datalayout = "e-m:e-p270:32:32-p271:32:32-p272:64:64-i64:64-f80:128-n8:16:32:64-S128"
target triple = "x86_64-pc-linux-gnu"

@.str = private unnamed_addr constant [3 x i8] c"%d\00", align 1
@.str.1 = private unnamed_addr constant [7 x i8] c"%d %d\0A\00", align 1
@str = private unnamed_addr constant [6 x i8] c"empty\00", align 1

; Function Attrs: nofree nounwind sspstrong uwtable
define dso_local i32 @main() local_unnamed_addr #0 {
  %1 = alloca i32, align 4
  %2 = bitcast i32* %1 to i8*
  call void @llvm.lifetime.start.p0i8(i64 4, i8* nonnull %2) #5
  %3 = call i32 (i8*, ...) @__isoc99_scanf(i8* getelementptr inbounds ([3 x i8], [3 x i8]* @.str, i64 0, i64 0), i32* nonnull %1)
  %4 = load i32, i32* %1, align 4, !tbaa !5
  %5 = icmp slt i32 %4, 5
  br i1 %5, label %29, label %6

6:                                                ; preds = %0, %25
  %7 = phi i32 [ %26, %25 ], [ 5, %0 ]
  %8 = sitofp i32 %7 to double
  %9 = call double @sqrt(double %8) #5
  %10 = fptosi double %9 to i32
  %11 = add nsw i32 %7, -2
  %12 = icmp slt i32 %10, 2
  br i1 %12, label %23, label %16

13:                                               ; preds = %20
  %14 = add nuw i32 %17, 1
  %15 = icmp eq i32 %17, %10
  br i1 %15, label %23, label %16, !llvm.loop !9

16:                                               ; preds = %6, %13
  %17 = phi i32 [ %14, %13 ], [ 2, %6 ]
  %18 = urem i32 %7, %17
  %19 = icmp eq i32 %18, 0
  br i1 %19, label %25, label %20

20:                                               ; preds = %16
  %21 = urem i32 %11, %17
  %22 = icmp eq i32 %21, 0
  br i1 %22, label %25, label %13

23:                                               ; preds = %13, %6
  %24 = call i32 (i8*, ...) @printf(i8* nonnull dereferenceable(1) getelementptr inbounds ([7 x i8], [7 x i8]* @.str.1, i64 0, i64 0), i32 %11, i32 %7)
  br label %25

25:                                               ; preds = %20, %16, %23
  %26 = add nuw nsw i32 %7, 1
  %27 = load i32, i32* %1, align 4, !tbaa !5
  %28 = icmp slt i32 %7, %27
  br i1 %28, label %6, label %29, !llvm.loop !11

29:                                               ; preds = %25, %0
  %30 = phi i32 [ %4, %0 ], [ %27, %25 ]
  %31 = add i32 %30, -1
  %32 = icmp ult i32 %31, 4
  br i1 %32, label %33, label %35

33:                                               ; preds = %29
  %34 = call i32 @puts(i8* nonnull dereferenceable(1) getelementptr inbounds ([6 x i8], [6 x i8]* @str, i64 0, i64 0))
  br label %35

35:                                               ; preds = %29, %33
  call void @llvm.lifetime.end.p0i8(i64 4, i8* nonnull %2) #5
  ret i32 0
}

; Function Attrs: argmemonly mustprogress nofree nosync nounwind willreturn
declare void @llvm.lifetime.start.p0i8(i64 immarg, i8* nocapture) #1

; Function Attrs: nofree nounwind
declare noundef i32 @__isoc99_scanf(i8* nocapture noundef readonly, ...) local_unnamed_addr #2

; Function Attrs: mustprogress nofree nounwind willreturn
declare double @sqrt(double) local_unnamed_addr #3

; Function Attrs: nofree nounwind
declare noundef i32 @printf(i8* nocapture noundef readonly, ...) local_unnamed_addr #2

; Function Attrs: argmemonly mustprogress nofree nosync nounwind willreturn
declare void @llvm.lifetime.end.p0i8(i64 immarg, i8* nocapture) #1

; Function Attrs: nofree nounwind
declare noundef i32 @puts(i8* nocapture noundef readonly) local_unnamed_addr #4


!llvm.module.flags = !{!0, !1, !2, !3}
!llvm.ident = !{!4}

!0 = !{i32 1, !"wchar_size", i32 4}
!1 = !{i32 7, !"PIC Level", i32 2}
!2 = !{i32 7, !"PIE Level", i32 2}
!3 = !{i32 7, !"uwtable", i32 1}
!4 = !{!"clang version 13.0.0"}
!5 = !{!6, !6, i64 0}
!6 = !{!"int", !7, i64 0}
!7 = !{!"omnipotent char", !8, i64 0}
!8 = !{!"Simple C/C++ TBAA"}
!9 = distinct !{!9, !10}
!10 = !{!"llvm.loop.mustprogress"}
!11 = distinct !{!11, !10}
